target datalayout = "e-m:e-p270:32:32-p271:32:32-p272:64:64-i64:64-i128:128-f80:128-n8:16:32:64-S128"
target triple = "x86_64-pc-linux-gnu"

%struct.png_colorspace = type { i32, %struct.png_xy, %struct.png_XYZ, i16, i16 }
%struct.png_xy = type { i32, i32, i32, i32, i32, i32, i32, i32 }
%struct.png_XYZ = type { i32, i32, i32, i32, i32, i32, i32, i32, i32 }
%struct.png_color_8_struct = type { i8, i8, i8, i8, i8 }
%struct.png_color_16_struct = type { i8, i16, i16, i16, i16 }
%struct.png_struct_def = type { [1 x %struct.__jmp_buf_tag], ptr, ptr, i64, ptr, ptr, ptr, ptr, ptr, ptr, ptr, ptr, ptr, i8, i8, i32, i32, i32, i32, %struct.z_stream_s, ptr, i32, i32, i32, i32, i32, i32, i32, i32, i32, i32, i32, i32, i32, i32, i32, i32, i32, i32, i32, i32, i64, i32, i32, i32, ptr, ptr, ptr, ptr, i64, i32, i32, ptr, i16, i32, i16, i8, i8, i8, i8, i8, i8, i8, i8, i8, i8, i8, i8, i8, i8, i8, i16, i8, i32, %struct.png_color_16_struct, %struct.png_color_16_struct, ptr, i32, i32, i32, i32, ptr, ptr, ptr, ptr, ptr, ptr, %struct.png_color_8_struct, %struct.png_color_8_struct, ptr, %struct.png_color_16_struct, ptr, ptr, ptr, ptr, ptr, ptr, ptr, ptr, ptr, i32, i32, i64, i64, i64, i64, i32, i32, ptr, ptr, i32, [29 x i8], i32, ptr, ptr, i32, i32, ptr, i8, i8, i16, i16, ptr, i32, i8, ptr, ptr, ptr, ptr, ptr, ptr, ptr, i8, i32, i32, i32, i64, %struct.png_unknown_chunk_t, i64, ptr, i64, i32, i32, ptr, [4 x ptr], %struct.png_colorspace }
%struct.__jmp_buf_tag = type { [8 x i64], i32, %struct.__sigset_t }
%struct.__sigset_t = type { [16 x i64] }
%struct.z_stream_s = type { ptr, i32, i64, ptr, i32, i64, ptr, ptr, ptr, ptr, ptr, i32, i64, i64 }
%struct.png_unknown_chunk_t = type { [5 x i8], ptr, i64, i8 }

@.str.49 = private unnamed_addr constant [32 x i8] c"invalid compression buffer size\00", align 1
@.str.50 = private unnamed_addr constant [63 x i8] c"Compression buffer size cannot be changed because it is in use\00", align 1
@.str.51 = private unnamed_addr constant [50 x i8] c"Compression buffer size limited to system maximum\00", align 1
@.str.52 = private unnamed_addr constant [50 x i8] c"Compression buffer size cannot be reduced below 6\00", align 1

; Function Attrs: nounwind uwtable
define void @png_set_compression_buffer_size(ptr noalias noundef %0, i64 noundef %1) #0 {
  %3 = alloca ptr, align 8
  %4 = alloca i64, align 8
  store ptr %0, ptr %3, align 8
  store i64 %1, ptr %4, align 8
  %5 = load ptr, ptr %3, align 8
  %6 = icmp eq ptr %5, null
  br i1 %6, label %7, label %8

7:                                                ; preds = %2
  br label %66

8:                                                ; preds = %2
  %9 = load i64, ptr %4, align 8
  %10 = icmp eq i64 %9, 0
  br i1 %10, label %14, label %11

11:                                               ; preds = %8
  %12 = load i64, ptr %4, align 8
  %13 = icmp ugt i64 %12, 2147483647
  br i1 %13, label %14, label %16

14:                                               ; preds = %11, %8
  %15 = load ptr, ptr %3, align 8
  call void @png_error(ptr noundef %15, ptr noundef @.str.49) #7
  unreachable

16:                                               ; preds = %11
  %17 = load ptr, ptr %3, align 8
  %18 = getelementptr inbounds %struct.png_struct_def, ptr %17, i32 0, i32 15
  %19 = load i32, ptr %18, align 4
  %20 = and i32 %19, 32768
  %21 = icmp ne i32 %20, 0
  br i1 %21, label %22, label %27

22:                                               ; preds = %16
  %23 = load i64, ptr %4, align 8
  %24 = trunc i64 %23 to i32
  %25 = load ptr, ptr %3, align 8
  %26 = getelementptr inbounds %struct.png_struct_def, ptr %25, i32 0, i32 141
  store i32 %24, ptr %26, align 8
  br label %66

27:                                               ; preds = %16
  %28 = load ptr, ptr %3, align 8
  %29 = getelementptr inbounds %struct.png_struct_def, ptr %28, i32 0, i32 15
  %30 = load i32, ptr %29, align 4
  %31 = and i32 %30, 32768
  %32 = icmp eq i32 %31, 0
  br i1 %32, label %33, label %66

33:                                               ; preds = %27
  %34 = load ptr, ptr %3, align 8
  %35 = getelementptr inbounds %struct.png_struct_def, ptr %34, i32 0, i32 18
  %36 = load i32, ptr %35, align 8
  %37 = icmp ne i32 %36, 0
  br i1 %37, label %38, label %40

38:                                               ; preds = %33
  %39 = load ptr, ptr %3, align 8
  call void @png_warning(ptr noundef %39, ptr noundef @.str.50)
  br label %66

40:                                               ; preds = %33
  %41 = load i64, ptr %4, align 8
  %42 = icmp ugt i64 %41, 4294967295
  br i1 %42, label %43, label %45

43:                                               ; preds = %40
  %44 = load ptr, ptr %3, align 8
  call void @png_warning(ptr noundef %44, ptr noundef @.str.51)
  store i64 4294967295, ptr %4, align 8
  br label %45

45:                                               ; preds = %43, %40
  %46 = load i64, ptr %4, align 8
  %47 = icmp ult i64 %46, 6
  br i1 %47, label %48, label %50

48:                                               ; preds = %45
  %49 = load ptr, ptr %3, align 8
  call void @png_warning(ptr noundef %49, ptr noundef @.str.52)
  br label %66

50:                                               ; preds = %45
  %51 = load ptr, ptr %3, align 8
  %52 = getelementptr inbounds %struct.png_struct_def, ptr %51, i32 0, i32 21
  %53 = load i32, ptr %52, align 8
  %54 = zext i32 %53 to i64
  %55 = load i64, ptr %4, align 8
  %56 = icmp ne i64 %54, %55
  br i1 %56, label %57, label %65

57:                                               ; preds = %50
  %58 = load ptr, ptr %3, align 8
  %59 = load ptr, ptr %3, align 8
  %60 = getelementptr inbounds %struct.png_struct_def, ptr %59, i32 0, i32 20
  call void @png_free_buffer_list(ptr noundef %58, ptr noundef %60)
  %61 = load i64, ptr %4, align 8
  %62 = trunc i64 %61 to i32
  %63 = load ptr, ptr %3, align 8
  %64 = getelementptr inbounds %struct.png_struct_def, ptr %63, i32 0, i32 21
  store i32 %62, ptr %64, align 8
  br label %65

65:                                               ; preds = %57, %50
  br label %66

66:                                               ; preds = %65, %48, %38, %27, %22, %7
  ret void
}