; Function Attrs: nounwind uwtable
define void @png_set_compression_buffer_size(ptr noalias noundef %0, i64 noundef %1) local_unnamed_addr #2 {
  %3 = icmp eq ptr %0, null
  br i1 %3, label %28, label %4

4:                                                ; preds = %2
  %5 = add i64 %1, -2147483648
  %or.cond = icmp ult i64 %5, -2147483647
  br i1 %or.cond, label %6, label %7

6:                                                ; preds = %4
  tail call void @png_error(ptr noundef nonnull %0, ptr noundef nonnull @.str.49) #14
  unreachable

7:                                                ; preds = %4
  %8 = getelementptr inbounds i8, ptr %0, i64 300
  %9 = load i32, ptr %8, align 4
  %10 = and i32 %9, 32768
  %.not = icmp eq i32 %10, 0
  br i1 %.not, label %14, label %11

11:                                               ; preds = %7
  %12 = trunc nuw nsw i64 %1 to i32
  %13 = getelementptr inbounds i8, ptr %0, i64 1136
  store i32 %12, ptr %13, align 8
  br label %28

14:                                               ; preds = %7
  %15 = getelementptr inbounds i8, ptr %0, i64 312
  %16 = load i32, ptr %15, align 8
  %.not22 = icmp eq i32 %16, 0
  br i1 %.not22, label %18, label %17

17:                                               ; preds = %14
  tail call void @png_warning(ptr noundef nonnull %0, ptr noundef nonnull @.str.50) #12
  br label %28

18:                                               ; preds = %14
  %19 = icmp ult i64 %1, 6
  br i1 %19, label %20, label %21

20:                                               ; preds = %18
  tail call void @png_warning(ptr noundef nonnull %0, ptr noundef nonnull @.str.52) #12
  br label %28

21:                                               ; preds = %18
  %22 = getelementptr inbounds i8, ptr %0, i64 440
  %23 = load i32, ptr %22, align 8
  %24 = zext i32 %23 to i64
  %.not23 = icmp eq i64 %24, %1
  br i1 %.not23, label %28, label %25

25:                                               ; preds = %21
  %26 = getelementptr inbounds i8, ptr %0, i64 432
  tail call void @png_free_buffer_list(ptr noundef nonnull %0, ptr noundef nonnull %26) #12
  %27 = trunc nuw nsw i64 %1 to i32
  store i32 %27, ptr %22, align 8
  br label %28

28:                                               ; preds = %21, %25, %2, %20, %17, %11
  ret void
}